; Function Attrs: mustprogress nofree norecurse nosync nounwind willreturn memory(none) uwtable
define range(i64 0, 4294967300) i64 @_ZN9grpc_core15XdsHealthStatus7FromUpbEj(i32 noundef %0) local_unnamed_addr #3 align 2 personality ptr @__gxx_personality_v0 {
  %2 = icmp ult i32 %0, 4
  br i1 %2, label %switch.lookup, label %6

switch.lookup:                                    ; preds = %1
  %3 = zext nneg i32 %0 to i64
  %switch.gep = getelementptr inbounds nuw [4 x i64], ptr @switch.table._ZN9grpc_core15XdsHealthStatus7FromUpbEj, i64 0, i64 %3
  %switch.load = load i64, ptr %switch.gep, align 8
  %4 = zext nneg i32 %0 to i64
  %switch.gep4 = getelementptr inbounds nuw [4 x i64], ptr @switch.table._ZN9grpc_core15XdsHealthStatus7FromUpbEj.1, i64 0, i64 %4
  %switch.load5 = load i64, ptr %switch.gep4, align 8
  %5 = or disjoint i64 %switch.load5, %switch.load
  br label %6

6:                                                ; preds = %1, %switch.lookup
  %.sroa.03.0.insert.insert = phi i64 [ %5, %switch.lookup ], [ 0, %1 ]
  ret i64 %.sroa.03.0.insert.insert
}